target datalayout = "e-m:e-p270:32:32-p271:32:32-p272:64:64-i64:64-i128:128-f80:128-n8:16:32:64-S128"
target triple = "x86_64-pc-linux-gnu"

%struct.ossl_record_layer_st = type { ptr, ptr, i32, i32, i32, i32, i32, ptr, i16, ptr, ptr, ptr, i64, i32, [33 x %struct.tls_buffer_st], i64, i64, %struct.tls_buffer_st, [32 x %struct.tls_rl_record_st], i64, i64, i64, i32, ptr, i64, [8 x i8], i32, i32, i64, i32, ptr, ptr, i64, ptr, ptr, i32, i32, i32, i64, i64, i64, [64 x i8], i32, i32, i32, ptr, ptr, i32, i32, i64, ptr, ptr, %struct.dtls_bitmap_st, %struct.dtls_bitmap_st, i32, ptr, ptr, ptr, ptr, ptr, i64, ptr }
%struct.tls_buffer_st = type { ptr, i64, i64, i64, i64, i32, i32 }
%struct.tls_rl_record_st = type { i32, i32, i64, i64, i64, ptr, ptr, ptr, i16, [8 x i8] }
%struct.dtls_bitmap_st = type { i64, [8 x i8] }
%struct.ossl_record_template_st = type { i8, i32, ptr, i64 }
%struct.wpacket_st = type { ptr, ptr, i64, i64, i64, ptr, i8 }

@.str = private unnamed_addr constant [42 x i8] c"../openssl/ssl/record/methods/tls1_meth.c\00", align 1
@__func__.tls1_initialise_write_packets = private unnamed_addr constant [30 x i8] c"tls1_initialise_write_packets\00", align 1

; Function Attrs: nounwind uwtable
define i32 @tls1_initialise_write_packets(ptr noundef %0, ptr noundef %1, i64 noundef %2, ptr noundef %3, ptr noundef %4, ptr noundef %5, ptr noundef %6) #0 {
  %8 = alloca i32, align 4
  %9 = alloca ptr, align 8
  %10 = alloca ptr, align 8
  %11 = alloca i64, align 8
  %12 = alloca ptr, align 8
  %13 = alloca ptr, align 8
  %14 = alloca ptr, align 8
  %15 = alloca ptr, align 8
  %16 = alloca i64, align 8
  %17 = alloca ptr, align 8
  %18 = alloca i64, align 8
  %19 = alloca i32, align 4
  store ptr %0, ptr %9, align 8, !tbaa !3
  store ptr %1, ptr %10, align 8, !tbaa !8
  store i64 %2, ptr %11, align 8, !tbaa !10
  store ptr %3, ptr %12, align 8, !tbaa !8
  store ptr %4, ptr %13, align 8, !tbaa !32
  store ptr %5, ptr %14, align 8, !tbaa !34
  store ptr %6, ptr %15, align 8, !tbaa !12
  call void @llvm.lifetime.start.p0(i64 8, ptr %16) #5
  store i64 0, ptr %16, align 8, !tbaa !10
  call void @llvm.lifetime.start.p0(i64 8, ptr %17) #5
  call void @llvm.lifetime.start.p0(i64 8, ptr %18) #5
  %20 = load ptr, ptr %9, align 8, !tbaa !3
  %21 = getelementptr inbounds nuw %struct.ossl_record_layer_st, ptr %20, i32 0, i32 29
  %22 = load i32, ptr %21, align 8, !tbaa !14
  %23 = icmp ne i32 %22, 0
  br i1 %23, label %24, label %31

24:                                               ; preds = %7
  %25 = load ptr, ptr %10, align 8, !tbaa !8
  %26 = getelementptr inbounds %struct.ossl_record_template_st, ptr %25, i64 0
  %27 = getelementptr inbounds nuw %struct.ossl_record_template_st, ptr %26, i32 0, i32 0
  %28 = load i8, ptr %27, align 8, !tbaa !30
  %29 = zext i8 %28 to i32
  %30 = icmp eq i32 %29, 23
  br label %31

31:                                               ; preds = %24, %7
  %32 = phi i1 [ false, %7 ], [ %30, %24 ]
  %33 = zext i1 %32 to i32
  %34 = sext i32 %33 to i64
  store i64 %34, ptr %18, align 8, !tbaa !10
  %35 = load i64, ptr %18, align 8, !tbaa !10
  %36 = icmp ne i64 %35, 0
  br i1 %36, label %37, label %86

37:                                               ; preds = %31
  %38 = load ptr, ptr %12, align 8, !tbaa !8
  %39 = getelementptr inbounds nuw %struct.ossl_record_template_st, ptr %38, i32 0, i32 2
  store ptr null, ptr %39, align 8, !tbaa !36
  %40 = load ptr, ptr %10, align 8, !tbaa !8
  %41 = getelementptr inbounds %struct.ossl_record_template_st, ptr %40, i64 0
  %42 = getelementptr inbounds nuw %struct.ossl_record_template_st, ptr %41, i32 0, i32 1
  %43 = load i32, ptr %42, align 4, !tbaa !37
  %44 = load ptr, ptr %12, align 8, !tbaa !8
  %45 = getelementptr inbounds nuw %struct.ossl_record_template_st, ptr %44, i32 0, i32 1
  store i32 %43, ptr %45, align 4, !tbaa !37
  %46 = load ptr, ptr %12, align 8, !tbaa !8
  %47 = getelementptr inbounds nuw %struct.ossl_record_template_st, ptr %46, i32 0, i32 3
  store i64 0, ptr %47, align 8, !tbaa !38
  %48 = load ptr, ptr %12, align 8, !tbaa !8
  %49 = getelementptr inbounds nuw %struct.ossl_record_template_st, ptr %48, i32 0, i32 0
  store i8 23, ptr %49, align 8, !tbaa !30
  %50 = load ptr, ptr %14, align 8, !tbaa !34
  %51 = getelementptr inbounds %struct.tls_buffer_st, ptr %50, i64 0
  store ptr %51, ptr %17, align 8, !tbaa !34
  %52 = load ptr, ptr %17, align 8, !tbaa !34
  %53 = getelementptr inbounds nuw %struct.tls_buffer_st, ptr %52, i32 0, i32 0
  %54 = load ptr, ptr %53, align 8, !tbaa !39
  %55 = ptrtoint ptr %54 to i64
  %56 = add i64 %55, 5
  store i64 %56, ptr %16, align 8, !tbaa !10
  %57 = load i64, ptr %16, align 8, !tbaa !10
  %58 = sub i64 %57, 1
  %59 = urem i64 %58, 8
  %60 = sub i64 7, %59
  store i64 %60, ptr %16, align 8, !tbaa !10
  %61 = load i64, ptr %16, align 8, !tbaa !10
  %62 = load ptr, ptr %17, align 8, !tbaa !34
  %63 = getelementptr inbounds nuw %struct.tls_buffer_st, ptr %62, i32 0, i32 3
  store i64 %61, ptr %63, align 8, !tbaa !40
  %64 = load ptr, ptr %13, align 8, !tbaa !32
  %65 = getelementptr inbounds %struct.wpacket_st, ptr %64, i64 0
  %66 = load ptr, ptr %17, align 8, !tbaa !34
  %67 = getelementptr inbounds nuw %struct.tls_buffer_st, ptr %66, i32 0, i32 0
  %68 = load ptr, ptr %67, align 8, !tbaa !39
  %69 = load ptr, ptr %17, align 8, !tbaa !34
  %70 = getelementptr inbounds nuw %struct.tls_buffer_st, ptr %69, i32 0, i32 2
  %71 = load i64, ptr %70, align 8, !tbaa !41
  %72 = call i32 @WPACKET_init_static_len(ptr noundef %65, ptr noundef %68, i64 noundef %71, i64 noundef 0)
  %73 = icmp ne i32 %72, 0
  br i1 %73, label %76, label %74

74:                                               ; preds = %37
  call void @ERR_new()
  call void @ERR_set_debug(ptr noundef @.str, i32 noundef 637, ptr noundef @__func__.tls1_initialise_write_packets)
  %75 = load ptr, ptr %9, align 8, !tbaa !3
  call void (ptr, i32, i32, ptr, ...) @ossl_rlayer_fatal(ptr noundef %75, i32 noundef 80, i32 noundef 786691, ptr noundef null)
  store i32 0, ptr %8, align 4
  store i32 1, ptr %19, align 4
  br label %98

76:                                               ; preds = %37
  %77 = load ptr, ptr %15, align 8, !tbaa !12
  store i64 1, ptr %77, align 8, !tbaa !10
  %78 = load ptr, ptr %13, align 8, !tbaa !32
  %79 = getelementptr inbounds %struct.wpacket_st, ptr %78, i64 0
  %80 = load i64, ptr %16, align 8, !tbaa !10
  %81 = call i32 @WPACKET_allocate_bytes(ptr noundef %79, i64 noundef %80, ptr noundef null)
  %82 = icmp ne i32 %81, 0
  br i1 %82, label %85, label %83

83:                                               ; preds = %76
  call void @ERR_new()
  call void @ERR_set_debug(ptr noundef @.str, i32 noundef 642, ptr noundef @__func__.tls1_initialise_write_packets)
  %84 = load ptr, ptr %9, align 8, !tbaa !3
  call void (ptr, i32, i32, ptr, ...) @ossl_rlayer_fatal(ptr noundef %84, i32 noundef 80, i32 noundef 786691, ptr noundef null)
  store i32 0, ptr %8, align 4
  store i32 1, ptr %19, align 4
  br label %98

85:                                               ; preds = %76
  br label %86

86:                                               ; preds = %85, %31
  %87 = load ptr, ptr %9, align 8, !tbaa !3
  %88 = load ptr, ptr %10, align 8, !tbaa !8
  %89 = load i64, ptr %11, align 8, !tbaa !10
  %90 = load ptr, ptr %13, align 8, !tbaa !32
  %91 = load i64, ptr %18, align 8, !tbaa !10
  %92 = getelementptr inbounds nuw %struct.wpacket_st, ptr %90, i64 %91
  %93 = load ptr, ptr %14, align 8, !tbaa !34
  %94 = load i64, ptr %18, align 8, !tbaa !10
  %95 = getelementptr inbounds nuw %struct.tls_buffer_st, ptr %93, i64 %94
  %96 = load ptr, ptr %15, align 8, !tbaa !12
  %97 = call i32 @tls_initialise_write_packets_default(ptr noundef %87, ptr noundef %88, i64 noundef %89, ptr noundef null, ptr noundef %92, ptr noundef %95, ptr noundef %96)
  store i32 %97, ptr %8, align 4
  store i32 1, ptr %19, align 4
  br label %98

98:                                               ; preds = %86, %83, %74
  call void @llvm.lifetime.end.p0(i64 8, ptr %18) #5
  call void @llvm.lifetime.end.p0(i64 8, ptr %17) #5
  call void @llvm.lifetime.end.p0(i64 8, ptr %16) #5
  %99 = load i32, ptr %8, align 4
  ret i32 %99
}