; Function Attrs: nounwind uwtable
define i32 @tls1_initialise_write_packets(ptr noundef %0, ptr noundef %1, i64 noundef %2, ptr noundef writeonly captures(none) %3, ptr noundef %4, ptr noundef %5, ptr noundef %6) #0 {
  %8 = getelementptr inbounds nuw i8, ptr %0, i64 4120
  %9 = load i32, ptr %8, align 8, !tbaa !3
  %.not = icmp eq i32 %9, 0
  br i1 %.not, label %.thread, label %10

10:                                               ; preds = %7
  %11 = load i8, ptr %1, align 8, !tbaa !23
  %12 = icmp eq i8 %11, 23
  br i1 %12, label %13, label %.thread

13:                                               ; preds = %10
  %14 = getelementptr inbounds nuw i8, ptr %3, i64 8
  store ptr null, ptr %14, align 8, !tbaa !26
  %15 = getelementptr inbounds nuw i8, ptr %1, i64 4
  %16 = load i32, ptr %15, align 4, !tbaa !27
  %17 = getelementptr inbounds nuw i8, ptr %3, i64 4
  store i32 %16, ptr %17, align 4, !tbaa !27
  %18 = getelementptr inbounds nuw i8, ptr %3, i64 16
  store i64 0, ptr %18, align 8, !tbaa !28
  store i8 23, ptr %3, align 8, !tbaa !23
  %19 = load ptr, ptr %5, align 8, !tbaa !29
  %20 = ptrtoint ptr %19 to i64
  %21 = and i64 %20, 7
  %22 = xor i64 %21, 3
  %23 = getelementptr inbounds nuw i8, ptr %5, i64 24
  store i64 %22, ptr %23, align 8, !tbaa !30
  %24 = getelementptr inbounds nuw i8, ptr %5, i64 16
  %25 = load i64, ptr %24, align 8, !tbaa !31
  %26 = tail call i32 @WPACKET_init_static_len(ptr noundef %4, ptr noundef %19, i64 noundef %25, i64 noundef 0) #5
  %.not29 = icmp eq i32 %26, 0
  br i1 %.not29, label %27, label %28

27:                                               ; preds = %13
  tail call void @ERR_new() #5
  tail call void @ERR_set_debug(ptr noundef nonnull @.str, i32 noundef 637, ptr noundef nonnull @__func__.tls1_initialise_write_packets) #5
  tail call void (ptr, i32, i32, ptr, ...) @ossl_rlayer_fatal(ptr noundef nonnull %0, i32 noundef 80, i32 noundef 786691, ptr noundef null) #5
  br label %35

28:                                               ; preds = %13
  store i64 1, ptr %6, align 8, !tbaa !25
  %29 = tail call i32 @WPACKET_allocate_bytes(ptr noundef %4, i64 noundef %22, ptr noundef null) #5
  %.not30 = icmp eq i32 %29, 0
  br i1 %.not30, label %30, label %.thread

30:                                               ; preds = %28
  tail call void @ERR_new() #5
  tail call void @ERR_set_debug(ptr noundef nonnull @.str, i32 noundef 642, ptr noundef nonnull @__func__.tls1_initialise_write_packets) #5
  tail call void (ptr, i32, i32, ptr, ...) @ossl_rlayer_fatal(ptr noundef nonnull %0, i32 noundef 80, i32 noundef 786691, ptr noundef null) #5
  br label %35

.thread:                                          ; preds = %7, %28, %10
  %31 = phi i64 [ 1, %28 ], [ 0, %10 ], [ 0, %7 ]
  %32 = getelementptr inbounds nuw %struct.wpacket_st, ptr %4, i64 %31
  %33 = getelementptr inbounds nuw %struct.tls_buffer_st, ptr %5, i64 %31
  %34 = tail call i32 @tls_initialise_write_packets_default(ptr noundef nonnull %0, ptr noundef %1, i64 noundef %2, ptr noundef null, ptr noundef %32, ptr noundef %33, ptr noundef %6) #5
  br label %35

35:                                               ; preds = %.thread, %30, %27
  %.0 = phi i32 [ %34, %.thread ], [ 0, %30 ], [ 0, %27 ]
  ret i32 %.0
}